target datalayout = "e-m:e-p270:32:32-p271:32:32-p272:64:64-i64:64-i128:128-f80:128-n8:16:32:64-S128"
target triple = "x86_64-pc-linux-gnu"

@.str.1 = private unnamed_addr constant [3 x i8] c"ld\00", align 1
@.str.11 = private unnamed_addr constant [7 x i8] c"ld.lld\00", align 1
@.str.12 = private unnamed_addr constant [8 x i8] c"ld.gold\00", align 1
@.str.13 = private unnamed_addr constant [7 x i8] c"ld.bfd\00", align 1
@.str.14 = private unnamed_addr constant [8 x i8] c"ld.mold\00", align 1

; Function Attrs: nounwind uwtable
define internal zeroext i1 @is_ld(ptr noundef %0) #0 {
  %2 = alloca ptr, align 8
  %3 = alloca ptr, align 8
  store ptr %0, ptr %2, align 8, !tbaa !3
  call void @llvm.lifetime.start.p0(i64 8, ptr %3) #8
  %4 = load ptr, ptr %2, align 8, !tbaa !3
  %5 = load ptr, ptr %2, align 8, !tbaa !3
  %6 = call i64 @strlen(ptr noundef %5) #7
  %7 = getelementptr inbounds nuw i8, ptr %4, i64 %6
  store ptr %7, ptr %3, align 8, !tbaa !3
  br label %8

8:                                                ; preds = %20, %1
  %9 = load ptr, ptr %2, align 8, !tbaa !3
  %10 = load ptr, ptr %3, align 8, !tbaa !3
  %11 = icmp ult ptr %9, %10
  br i1 %11, label %12, label %18

12:                                               ; preds = %8
  %13 = load ptr, ptr %3, align 8, !tbaa !3
  %14 = getelementptr inbounds i8, ptr %13, i64 -1
  %15 = load i8, ptr %14, align 1, !tbaa !18
  %16 = sext i8 %15 to i32
  %17 = icmp ne i32 %16, 47
  br label %18

18:                                               ; preds = %12, %8
  %19 = phi i1 [ false, %8 ], [ %17, %12 ]
  br i1 %19, label %20, label %23

20:                                               ; preds = %18
  %21 = load ptr, ptr %3, align 8, !tbaa !3
  %22 = getelementptr inbounds i8, ptr %21, i32 -1
  store ptr %22, ptr %3, align 8, !tbaa !3
  br label %8, !llvm.loop !19

23:                                               ; preds = %18
  %24 = load ptr, ptr %3, align 8, !tbaa !3
  %25 = call i32 @strcmp(ptr noundef %24, ptr noundef @.str.1) #7
  %26 = icmp ne i32 %25, 0
  br i1 %26, label %27, label %44

27:                                               ; preds = %23
  %28 = load ptr, ptr %3, align 8, !tbaa !3
  %29 = call i32 @strcmp(ptr noundef %28, ptr noundef @.str.11) #7
  %30 = icmp ne i32 %29, 0
  br i1 %30, label %31, label %44

31:                                               ; preds = %27
  %32 = load ptr, ptr %3, align 8, !tbaa !3
  %33 = call i32 @strcmp(ptr noundef %32, ptr noundef @.str.12) #7
  %34 = icmp ne i32 %33, 0
  br i1 %34, label %35, label %44

35:                                               ; preds = %31
  %36 = load ptr, ptr %3, align 8, !tbaa !3
  %37 = call i32 @strcmp(ptr noundef %36, ptr noundef @.str.13) #7
  %38 = icmp ne i32 %37, 0
  br i1 %38, label %39, label %44

39:                                               ; preds = %35
  %40 = load ptr, ptr %3, align 8, !tbaa !3
  %41 = call i32 @strcmp(ptr noundef %40, ptr noundef @.str.14) #7
  %42 = icmp ne i32 %41, 0
  %43 = xor i1 %42, true
  br label %44

44:                                               ; preds = %39, %35, %31, %27, %23
  %45 = phi i1 [ true, %35 ], [ true, %31 ], [ true, %27 ], [ true, %23 ], [ %43, %39 ]
  call void @llvm.lifetime.end.p0(i64 8, ptr %3) #8
  ret i1 %45
}