; Function Attrs: nofree nounwind memory(argmem: read) uwtable
define internal fastcc zeroext i1 @is_ld(ptr noundef nonnull readonly %0) unnamed_addr #3 {
  %2 = tail call i64 @strlen(ptr noundef nonnull dereferenceable(1) %0) #15
  %3 = getelementptr inbounds nuw i8, ptr %0, i64 %2
  br label %4

4:                                                ; preds = %6, %1
  %.0 = phi ptr [ %3, %1 ], [ %7, %6 ]
  %5 = icmp ult ptr %0, %.0
  br i1 %5, label %6, label %sub_0

6:                                                ; preds = %4
  %7 = getelementptr inbounds i8, ptr %.0, i64 -1
  %8 = load i8, ptr %7, align 1, !tbaa !15
  %.not = icmp eq i8 %8, 47
  br i1 %.not, label %sub_0, label %4, !llvm.loop !16

sub_0:                                            ; preds = %6, %4
  %9 = load i8, ptr %.0, align 1
  %.not16 = icmp eq i8 %9, 108
  br i1 %.not16, label %sub_1, label %.critedge.tail.thread

sub_1:                                            ; preds = %sub_0
  %10 = getelementptr inbounds nuw i8, ptr %.0, i64 1
  %11 = load i8, ptr %10, align 1
  %.not17 = icmp eq i8 %11, 100
  br i1 %.not17, label %.critedge.tail, label %.critedge.tail.thread

.critedge.tail:                                   ; preds = %sub_1
  %12 = getelementptr inbounds nuw i8, ptr %.0, i64 2
  %13 = load i8, ptr %12, align 1
  %14 = icmp eq i8 %13, 0
  br i1 %14, label %22, label %.critedge.tail.thread

.critedge.tail.thread:                            ; preds = %sub_1, %sub_0, %.critedge.tail
  %15 = tail call i32 @strcmp(ptr noundef nonnull dereferenceable(1) %.0, ptr noundef nonnull dereferenceable(7) @.str.11) #15
  %.not12 = icmp eq i32 %15, 0
  br i1 %.not12, label %22, label %16

16:                                               ; preds = %.critedge.tail.thread
  %17 = tail call i32 @strcmp(ptr noundef nonnull dereferenceable(1) %.0, ptr noundef nonnull dereferenceable(8) @.str.12) #15
  %.not13 = icmp eq i32 %17, 0
  br i1 %.not13, label %22, label %18

18:                                               ; preds = %16
  %19 = tail call i32 @strcmp(ptr noundef nonnull dereferenceable(1) %.0, ptr noundef nonnull dereferenceable(7) @.str.13) #15
  %.not14 = icmp eq i32 %19, 0
  br i1 %.not14, label %22, label %20

20:                                               ; preds = %18
  %21 = tail call i32 @strcmp(ptr noundef nonnull dereferenceable(1) %.0, ptr noundef nonnull dereferenceable(8) @.str.14) #15
  %.not15 = icmp eq i32 %21, 0
  br label %22

22:                                               ; preds = %20, %18, %16, %.critedge.tail.thread, %.critedge.tail
  %23 = phi i1 [ true, %18 ], [ true, %16 ], [ true, %.critedge.tail.thread ], [ true, %.critedge.tail ], [ %.not15, %20 ]
  ret i1 %23
}